target datalayout = "e-m:e-p270:32:32-p271:32:32-p272:64:64-i64:64-i128:128-f80:128-n8:16:32:64-S128"
target triple = "x86_64-pc-linux-gnu"

%"struct.absl::cord_internal::CordRep" = type { i64, %"class.absl::cord_internal::RefcountAndFlags", i8, [3 x i8] }
%"class.absl::cord_internal::RefcountAndFlags" = type { %"struct.std::atomic" }
%"struct.std::atomic" = type { %"struct.std::__atomic_base" }
%"struct.std::__atomic_base" = type { i32 }
%class.anon = type { ptr }
%"class.absl::FunctionRef" = type { %"union.absl::functional_internal::VoidPtr", ptr }
%"union.absl::functional_internal::VoidPtr" = type { ptr }

; Function Attrs: mustprogress nounwind uwtable
define internal void @"_ZN4absl19functional_internal13AssertNonNullIZNS_13cord_internal12CordRepBtree10CreateSlowEPNS2_7CordRepEE3$_0EEvRKT_"(ptr noundef nonnull align 8 dereferenceable(8) %0) #6 {
  %2 = alloca ptr, align 8
  store ptr %0, ptr %2, align 8, !tbaa !137
  ret void
}

; Function Attrs: mustprogress uwtable
define internal void @"_ZN4absl11FunctionRefIFvPNS_13cord_internal7CordRepEmmEEC2IZNS1_12CordRepBtree10CreateSlowES3_E3$_0vEERKT_"(ptr noundef nonnull align 8 dereferenceable(16) %0, ptr noundef nonnull align 8 dereferenceable(8) %1) unnamed_addr #4 align 2 {
  %3 = alloca ptr, align 8
  %4 = alloca ptr, align 8
  store ptr %0, ptr %3, align 8, !tbaa !135
  store ptr %1, ptr %4, align 8, !tbaa !137
  %5 = load ptr, ptr %3, align 8
  %6 = getelementptr inbounds nuw %"class.absl::FunctionRef", ptr %5, i32 0, i32 1
  store ptr @"_ZN4absl19functional_internal12InvokeObjectIZNS_13cord_internal12CordRepBtree10CreateSlowEPNS2_7CordRepEE3$_0vJS5_mmEEET0_NS0_7VoidPtrEDpNS0_8ForwardTIT1_E4typeE", ptr %6, align 8, !tbaa !138
  %7 = load ptr, ptr %4, align 8, !tbaa !137
  call void @"_ZN4absl19functional_internal13AssertNonNullIZNS_13cord_internal12CordRepBtree10CreateSlowEPNS2_7CordRepEE3$_0EEvRKT_"(ptr noundef nonnull align 8 dereferenceable(8) %7)
  %8 = load ptr, ptr %4, align 8, !tbaa !137
  %9 = getelementptr inbounds nuw %"class.absl::FunctionRef", ptr %5, i32 0, i32 0
  store ptr %8, ptr %9, align 8, !tbaa !23
  ret void
}

; Function Attrs: inlinehint mustprogress nounwind uwtable
define linkonce_odr dso_local noundef ptr @_ZN4absl13cord_internal7CordRep5btreeEv(ptr noundef nonnull align 8 dereferenceable(16) %0) #8 comdat align 2 {
  %2 = alloca ptr, align 8
  store ptr %0, ptr %2, align 8, !tbaa !9
  %3 = load ptr, ptr %2, align 8
  ret ptr %3
}

; Function Attrs: mustprogress nounwind uwtable
define linkonce_odr dso_local noundef zeroext i1 @_ZNK4absl13cord_internal7CordRep7IsBtreeEv(ptr noundef nonnull align 8 dereferenceable(16) %0) #6 comdat align 2 {
  %2 = alloca ptr, align 8
  store ptr %0, ptr %2, align 8, !tbaa !9
  %3 = load ptr, ptr %2, align 8
  %4 = getelementptr inbounds nuw %"struct.absl::cord_internal::CordRep", ptr %3, i32 0, i32 2
  %5 = load i8, ptr %4, align 4, !tbaa !79
  %6 = zext i8 %5 to i32
  %7 = icmp eq i32 %6, 3
  ret i1 %7
}

; Function Attrs: mustprogress uwtable
define dso_local noundef ptr @_ZN4absl13cord_internal12CordRepBtree10CreateSlowEPNS0_7CordRepE(ptr noundef %0) #4 align 2 {
  %2 = alloca ptr, align 8
  %3 = alloca ptr, align 8
  %4 = alloca ptr, align 8
  %5 = alloca %class.anon, align 8
  %6 = alloca %"class.absl::FunctionRef", align 8
  store ptr %0, ptr %3, align 8, !tbaa !9
  %7 = load ptr, ptr %3, align 8, !tbaa !9
  %8 = call noundef zeroext i1 @_ZNK4absl13cord_internal7CordRep7IsBtreeEv(ptr noundef nonnull align 8 dereferenceable(16) %7)
  br i1 %8, label %9, label %12

9:                                                ; preds = %1
  %10 = load ptr, ptr %3, align 8, !tbaa !9
  %11 = call noundef ptr @_ZN4absl13cord_internal7CordRep5btreeEv(ptr noundef nonnull align 8 dereferenceable(16) %10)
  store ptr %11, ptr %2, align 8
  br label %20

12:                                               ; preds = %1
  call void @llvm.lifetime.start.p0(i64 8, ptr %4) #3
  store ptr null, ptr %4, align 8, !tbaa !4
  call void @llvm.lifetime.start.p0(i64 8, ptr %5) #3
  %13 = getelementptr inbounds nuw %class.anon, ptr %5, i32 0, i32 0
  store ptr %4, ptr %13, align 8, !tbaa !133
  %14 = load ptr, ptr %3, align 8, !tbaa !9
  call void @"_ZN4absl11FunctionRefIFvPNS_13cord_internal7CordRepEmmEEC2IZNS1_12CordRepBtree10CreateSlowES3_E3$_0vEERKT_"(ptr noundef nonnull align 8 dereferenceable(16) %6, ptr noundef nonnull align 8 dereferenceable(8) %5)
  %15 = getelementptr inbounds nuw { ptr, ptr }, ptr %6, i32 0, i32 0
  %16 = load ptr, ptr %15, align 8
  %17 = getelementptr inbounds nuw { ptr, ptr }, ptr %6, i32 0, i32 1
  %18 = load ptr, ptr %17, align 8
  call void @_ZN4absl13cord_internal7ConsumeEPNS0_7CordRepENS_11FunctionRefIFvS2_mmEEE(ptr noundef %14, ptr %16, ptr %18)
  %19 = load ptr, ptr %4, align 8, !tbaa !4
  store ptr %19, ptr %2, align 8
  call void @llvm.lifetime.end.p0(i64 8, ptr %5) #3
  call void @llvm.lifetime.end.p0(i64 8, ptr %4) #3
  br label %20

20:                                               ; preds = %12, %9
  %21 = load ptr, ptr %2, align 8
  ret ptr %21
}