; Function Attrs: mustprogress uwtable
define dso_local noundef ptr @_ZN4absl13cord_internal12CordRepBtree10CreateSlowEPNS0_7CordRepE(ptr noundef %0) local_unnamed_addr #3 align 2 {
  %2 = alloca ptr, align 8
  %3 = alloca %class.anon, align 8
  %4 = getelementptr inbounds nuw i8, ptr %0, i64 12
  %5 = load i8, ptr %4, align 4, !tbaa !25
  %6 = icmp eq i8 %5, 3
  br i1 %6, label %9, label %7

7:                                                ; preds = %1
  call void @llvm.lifetime.start.p0(i64 8, ptr nonnull %2) #20
  store ptr null, ptr %2, align 8, !tbaa !14
  call void @llvm.lifetime.start.p0(i64 8, ptr nonnull %3) #20
  store ptr %2, ptr %3, align 8, !tbaa !99
  call void @_ZN4absl13cord_internal7ConsumeEPNS0_7CordRepENS_11FunctionRefIFvS2_mmEEE(ptr noundef nonnull %0, ptr nonnull %3, ptr nonnull @"_ZN4absl19functional_internal12InvokeObjectIZNS_13cord_internal12CordRepBtree10CreateSlowEPNS2_7CordRepEE3$_0vJS5_mmEEET0_NS0_7VoidPtrEDpNS0_8ForwardTIT1_E4typeE")
  %8 = load ptr, ptr %2, align 8, !tbaa !14
  call void @llvm.lifetime.end.p0(i64 8, ptr nonnull %3) #20
  call void @llvm.lifetime.end.p0(i64 8, ptr nonnull %2) #20
  br label %9

9:                                                ; preds = %1, %7
  %.0 = phi ptr [ %8, %7 ], [ %0, %1 ]
  ret ptr %.0
}